target datalayout = "e-m:e-p270:32:32-p271:32:32-p272:64:64-i64:64-i128:128-f80:128-n8:16:32:64-S128"
target triple = "x86_64-pc-linux-gnu"

@proto_register_exported_pdu.ett = internal global [3 x ptr] [ptr @ett_exported_pdu, ptr @ett_exported_pdu_tag, ptr @ett_exported_pdu_3gpp_cgi], align 16
@.str.82 = private unnamed_addr constant [13 x i8] c"EXPORTED_PDU\00", align 1
@.str.83 = private unnamed_addr constant [13 x i8] c"Exported PDU\00", align 1
@.str.84 = private unnamed_addr constant [13 x i8] c"exported_pdu\00", align 1
@proto_exported_pdu = internal global i32 0, align 4
@exported_pdu_handle = internal global ptr null, align 8
@.str.85 = private unnamed_addr constant [14 x i8] c"user_data_pdu\00", align 1
@.str.86 = private unnamed_addr constant [24 x i8] c"User Data PDU dissector\00", align 1
@.str.87 = private unnamed_addr constant [39 x i8] c"The dissector to use for User Data PDU\00", align 1
@user_data_pdu = internal global ptr @.str.148, align 8
@.str.88 = private unnamed_addr constant [12 x i8] c"OSI layer 3\00", align 1
@.str.89 = private unnamed_addr constant [12 x i8] c"OSI layer 4\00", align 1
@.str.90 = private unnamed_addr constant [12 x i8] c"OSI layer 7\00", align 1

; Function Attrs: null_pointer_is_valid sspstrong uwtable
define hidden void @proto_register_exported_pdu() #0 {
  %1 = alloca ptr, align 8
  %2 = alloca ptr, align 8
  call void @llvm.lifetime.start.p0(i64 8, ptr %1) #7
  call void @llvm.lifetime.start.p0(i64 8, ptr %2) #7
  %3 = call i32 @proto_register_protocol(ptr noundef @.str.82, ptr noundef @.str.83, ptr noundef @.str.84)
  store i32 %3, ptr @proto_exported_pdu, align 4
  %4 = load i32, ptr @proto_exported_pdu, align 4
  %5 = call ptr @expert_register_protocol(i32 noundef %4)
  store ptr %5, ptr %1, align 8
  %6 = load ptr, ptr %1, align 8
  call void @expert_register_field_array(ptr noundef %6, ptr noundef @proto_register_exported_pdu.ei, i32 noundef 3)
  %7 = load i32, ptr @proto_exported_pdu, align 4
  %8 = call ptr @register_dissector(ptr noundef @.str.84, ptr noundef @dissect_exported_pdu, i32 noundef %7)
  store ptr %8, ptr @exported_pdu_handle, align 8
  %9 = load i32, ptr @proto_exported_pdu, align 4
  call void @proto_register_field_array(i32 noundef %9, ptr noundef @proto_register_exported_pdu.hf, i32 noundef 38)
  call void @proto_register_subtree_array(ptr noundef @proto_register_exported_pdu.ett, i32 noundef 3)
  %10 = load i32, ptr @proto_exported_pdu, align 4
  %11 = call ptr @prefs_register_protocol(i32 noundef %10, ptr noundef null)
  store ptr %11, ptr %2, align 8
  %12 = load ptr, ptr %2, align 8
  call void @prefs_register_dissector_preference(ptr noundef %12, ptr noundef @.str.85, ptr noundef @.str.86, ptr noundef @.str.87, ptr noundef @user_data_pdu)
  %13 = call i32 @register_export_pdu_tap(ptr noundef @.str.88)
  %14 = call i32 @register_export_pdu_tap(ptr noundef @.str.89)
  %15 = call i32 @register_export_pdu_tap(ptr noundef @.str.90)
  call void @llvm.lifetime.end.p0(i64 8, ptr %2) #7
  call void @llvm.lifetime.end.p0(i64 8, ptr %1) #7
  ret void
}