; Function Attrs: null_pointer_is_valid sspstrong uwtable
define hidden void @proto_register_exported_pdu() local_unnamed_addr #0 {
  %1 = tail call i32 @proto_register_protocol(ptr noundef nonnull @.str.82, ptr noundef nonnull @.str.83, ptr noundef nonnull @.str.84)
  store i32 %1, ptr @proto_exported_pdu, align 4
  %2 = tail call ptr @expert_register_protocol(i32 noundef %1)
  tail call void @expert_register_field_array(ptr noundef %2, ptr noundef nonnull @proto_register_exported_pdu.ei, i32 noundef 3)
  %3 = load i32, ptr @proto_exported_pdu, align 4
  %4 = tail call ptr @register_dissector(ptr noundef nonnull @.str.84, ptr noundef nonnull @dissect_exported_pdu, i32 noundef %3)
  store ptr %4, ptr @exported_pdu_handle, align 8
  %5 = load i32, ptr @proto_exported_pdu, align 4
  tail call void @proto_register_field_array(i32 noundef %5, ptr noundef nonnull @proto_register_exported_pdu.hf, i32 noundef 38)
  tail call void @proto_register_subtree_array(ptr noundef nonnull @proto_register_exported_pdu.ett, i32 noundef 3)
  %6 = load i32, ptr @proto_exported_pdu, align 4
  %7 = tail call ptr @prefs_register_protocol(i32 noundef %6, ptr noundef null)
  tail call void @prefs_register_dissector_preference(ptr noundef %7, ptr noundef nonnull @.str.85, ptr noundef nonnull @.str.86, ptr noundef nonnull @.str.87, ptr noundef nonnull @user_data_pdu)
  %8 = tail call i32 @register_export_pdu_tap(ptr noundef nonnull @.str.88)
  %9 = tail call i32 @register_export_pdu_tap(ptr noundef nonnull @.str.89)
  %10 = tail call i32 @register_export_pdu_tap(ptr noundef nonnull @.str.90)
  ret void
}